target datalayout = "e-m:e-p270:32:32-p271:32:32-p272:64:64-i64:64-i128:128-f80:128-n8:16:32:64-S128"
target triple = "x86_64-pc-linux-gnu"

%struct.AVPixFmtDescriptor = type { ptr, i8, i8, i8, i64, [4 x %struct.AVComponentDescriptor], ptr }
%struct.AVComponentDescriptor = type { i32, i32, i32, i32, i32 }

; Function Attrs: nounwind uwtable
define internal i32 @query_formats(ptr noundef %0, ptr noundef %1, ptr noundef %2) #0 {
  %4 = alloca i32, align 4
  %5 = alloca ptr, align 8
  %6 = alloca ptr, align 8
  %7 = alloca ptr, align 8
  %8 = alloca ptr, align 8
  %9 = alloca ptr, align 8
  %10 = alloca i32, align 4
  %11 = alloca i32, align 4
  %12 = alloca i32, align 4
  store ptr %0, ptr %5, align 8, !tbaa !4
  store ptr %1, ptr %6, align 8, !tbaa !9
  store ptr %2, ptr %7, align 8, !tbaa !9
  call void @llvm.lifetime.start.p0(i64 8, ptr %8) #4
  store ptr null, ptr %8, align 8, !tbaa !12
  call void @llvm.lifetime.start.p0(i64 8, ptr %9) #4
  call void @llvm.lifetime.start.p0(i64 4, ptr %10) #4
  store ptr null, ptr %9, align 8, !tbaa !14
  br label %13

13:                                               ; preds = %58, %3
  %14 = load ptr, ptr %8, align 8, !tbaa !12
  %15 = call ptr @av_pix_fmt_desc_next(ptr noundef %14)
  store ptr %15, ptr %8, align 8, !tbaa !12
  %16 = icmp ne ptr %15, null
  br i1 %16, label %17, label %59

17:                                               ; preds = %13
  call void @llvm.lifetime.start.p0(i64 4, ptr %11) #4
  %18 = load ptr, ptr %8, align 8, !tbaa !12
  %19 = call i32 @av_pix_fmt_desc_get_id(ptr noundef %18)
  store i32 %19, ptr %11, align 4, !tbaa !16
  %20 = load ptr, ptr %8, align 8, !tbaa !12
  %21 = getelementptr inbounds nuw %struct.AVPixFmtDescriptor, ptr %20, i32 0, i32 4
  %22 = load i64, ptr %21, align 8, !tbaa !18
  %23 = and i64 %22, 8
  %24 = icmp ne i64 %23, 0
  br i1 %24, label %55, label %25

25:                                               ; preds = %17
  %26 = load ptr, ptr %8, align 8, !tbaa !12
  %27 = getelementptr inbounds nuw %struct.AVPixFmtDescriptor, ptr %26, i32 0, i32 4
  %28 = load i64, ptr %27, align 8, !tbaa !18
  %29 = and i64 %28, 2
  %30 = icmp ne i64 %29, 0
  br i1 %30, label %55, label %31

31:                                               ; preds = %25
  %32 = load ptr, ptr %8, align 8, !tbaa !12
  %33 = getelementptr inbounds nuw %struct.AVPixFmtDescriptor, ptr %32, i32 0, i32 4
  %34 = load i64, ptr %33, align 8, !tbaa !18
  %35 = and i64 %34, 4
  %36 = icmp ne i64 %35, 0
  br i1 %36, label %55, label %37

37:                                               ; preds = %31
  %38 = load ptr, ptr %8, align 8, !tbaa !12
  %39 = getelementptr inbounds nuw %struct.AVPixFmtDescriptor, ptr %38, i32 0, i32 1
  %40 = load i8, ptr %39, align 8, !tbaa !22
  %41 = zext i8 %40 to i32
  %42 = icmp ne i32 %41, 0
  br i1 %42, label %43, label %55

43:                                               ; preds = %37
  %44 = load ptr, ptr %8, align 8, !tbaa !12
  %45 = getelementptr inbounds nuw %struct.AVPixFmtDescriptor, ptr %44, i32 0, i32 3
  %46 = load i8, ptr %45, align 2, !tbaa !23
  %47 = icmp ne i8 %46, 0
  br i1 %47, label %55, label %48

48:                                               ; preds = %43
  %49 = load i32, ptr %11, align 4, !tbaa !16
  %50 = sext i32 %49 to i64
  %51 = call i32 @ff_add_format(ptr noundef %9, i64 noundef %50)
  store i32 %51, ptr %10, align 4, !tbaa !16
  %52 = icmp slt i32 %51, 0
  br i1 %52, label %53, label %55

53:                                               ; preds = %48
  %54 = load i32, ptr %10, align 4, !tbaa !16
  store i32 %54, ptr %4, align 4
  store i32 1, ptr %12, align 4
  br label %56

55:                                               ; preds = %48, %43, %37, %31, %25, %17
  store i32 0, ptr %12, align 4
  br label %56

56:                                               ; preds = %55, %53
  call void @llvm.lifetime.end.p0(i64 4, ptr %11) #4
  %57 = load i32, ptr %12, align 4
  switch i32 %57, label %65 [
    i32 0, label %58
  ]

58:                                               ; preds = %56
  br label %13, !llvm.loop !24

59:                                               ; preds = %13
  %60 = load ptr, ptr %5, align 8, !tbaa !4
  %61 = load ptr, ptr %6, align 8, !tbaa !9
  %62 = load ptr, ptr %7, align 8, !tbaa !9
  %63 = load ptr, ptr %9, align 8, !tbaa !14
  %64 = call i32 @ff_set_common_formats2(ptr noundef %60, ptr noundef %61, ptr noundef %62, ptr noundef %63)
  store i32 %64, ptr %4, align 4
  store i32 1, ptr %12, align 4
  br label %65

65:                                               ; preds = %59, %56
  call void @llvm.lifetime.end.p0(i64 4, ptr %10) #4
  call void @llvm.lifetime.end.p0(i64 8, ptr %9) #4
  call void @llvm.lifetime.end.p0(i64 8, ptr %8) #4
  %66 = load i32, ptr %4, align 4
  ret i32 %66
}