; Function Attrs: nounwind uwtable
define internal i32 @query_formats(ptr noundef %0, ptr noundef %1, ptr noundef %2) #0 {
  %4 = alloca ptr, align 8
  call void @llvm.lifetime.start.p0(i64 8, ptr nonnull %4) #4
  store ptr null, ptr %4, align 8, !tbaa !4
  %5 = tail call ptr @av_pix_fmt_desc_next(ptr noundef null) #4
  %.not25 = icmp eq ptr %5, null
  br i1 %.not25, label %._crit_edge, label %.lr.ph

.lr.ph:                                           ; preds = %3, %21
  %6 = phi ptr [ %22, %21 ], [ %5, %3 ]
  %7 = call i32 @av_pix_fmt_desc_get_id(ptr noundef nonnull %6) #4
  %8 = getelementptr inbounds nuw i8, ptr %6, i64 16
  %9 = load i64, ptr %8, align 8, !tbaa !9
  %10 = and i64 %9, 14
  %or.cond22 = icmp eq i64 %10, 0
  br i1 %or.cond22, label %11, label %21

11:                                               ; preds = %.lr.ph
  %12 = getelementptr inbounds nuw i8, ptr %6, i64 8
  %13 = load i8, ptr %12, align 8, !tbaa !13
  %.not20 = icmp eq i8 %13, 0
  br i1 %.not20, label %21, label %14

14:                                               ; preds = %11
  %15 = getelementptr inbounds nuw i8, ptr %6, i64 10
  %16 = load i8, ptr %15, align 2, !tbaa !14
  %.not21 = icmp eq i8 %16, 0
  br i1 %.not21, label %17, label %21

17:                                               ; preds = %14
  %18 = sext i32 %7 to i64
  %19 = call i32 @ff_add_format(ptr noundef nonnull %4, i64 noundef %18) #4
  %20 = icmp slt i32 %19, 0
  br i1 %20, label %.thread, label %21

21:                                               ; preds = %.lr.ph, %11, %14, %17
  %22 = call ptr @av_pix_fmt_desc_next(ptr noundef nonnull %6) #4
  %.not = icmp eq ptr %22, null
  br i1 %.not, label %._crit_edge.loopexit, label %.lr.ph, !llvm.loop !15

._crit_edge.loopexit:                             ; preds = %21
  %.pre = load ptr, ptr %4, align 8, !tbaa !4
  br label %._crit_edge

._crit_edge:                                      ; preds = %._crit_edge.loopexit, %3
  %23 = phi ptr [ %.pre, %._crit_edge.loopexit ], [ null, %3 ]
  %24 = call i32 @ff_set_common_formats2(ptr noundef %0, ptr noundef %1, ptr noundef %2, ptr noundef %23) #4
  br label %.thread

.thread:                                          ; preds = %17, %._crit_edge
  %.2 = phi i32 [ %24, %._crit_edge ], [ %19, %17 ]
  call void @llvm.lifetime.end.p0(i64 8, ptr nonnull %4) #4
  ret i32 %.2
}